; ModuleID = 'source-C-CXX/23/65.c'
source_filename = "source-C-CXX/23/65.c"
target datalayout = "e-m:e-p270:32:32-p271:32:32-p272:64:64-i64:64-f80:128-n8:16:32:64-S128"
target triple = "x86_64-pc-linux-gnu"

%struct._IO_FILE = type { i32, i8*, i8*, i8*, i8*, i8*, i8*, i8*, i8*, i8*, i8*, i8*, %struct._IO_marker*, %struct._IO_FILE*, i32, i32, i64, i16, i8, [1 x i8], i8*, i64, %struct._IO_codecvt*, %struct._IO_wide_data*, %struct._IO_FILE*, i8*, i64, i32, [20 x i8] }
%struct._IO_marker = type opaque
%struct._IO_codecvt = type opaque
%struct._IO_wide_data = type opaque

@.str = private unnamed_addr constant [3 x i8] c"%s\00", align 1
@stdin = external local_unnamed_addr global %struct._IO_FILE*, align 8

; Function Attrs: nofree nounwind sspstrong uwtable
define dso_local i32 @main() local_unnamed_addr #0 {
  %1 = alloca [50 x [20 x i8]], align 16
  %2 = getelementptr inbounds [50 x [20 x i8]], [50 x [20 x i8]]* %1, i64 0, i64 0, i64 0
  call void @llvm.lifetime.start.p0i8(i64 1000, i8* nonnull %2) #5
  %3 = getelementptr inbounds [50 x [20 x i8]], [50 x [20 x i8]]* %1, i64 0, i64 0
  %4 = getelementptr inbounds [50 x [20 x i8]], [50 x [20 x i8]]* %1, i64 0, i64 50
  br label %5

5:                                                ; preds = %5, %0
  %6 = phi i32 [ 0, %0 ], [ %10, %5 ]
  %7 = phi [20 x i8]* [ %3, %0 ], [ %14, %5 ]
  %8 = getelementptr inbounds [20 x i8], [20 x i8]* %7, i64 0, i64 0
  %9 = call i32 (i8*, ...) @__isoc99_scanf(i8* getelementptr inbounds ([3 x i8], [3 x i8]* @.str, i64 0, i64 0), i8* %8)
  %10 = add nuw nsw i32 %6, 1
  %11 = load %struct._IO_FILE*, %struct._IO_FILE** @stdin, align 8, !tbaa !5
  %12 = call i32 @getc(%struct._IO_FILE* %11) #5
  %13 = icmp ne i32 %12, 10
  %14 = getelementptr inbounds [20 x i8], [20 x i8]* %7, i64 1
  %15 = icmp ult [20 x i8]* %14, %4
  %16 = select i1 %13, i1 %15, i1 false
  br i1 %16, label %5, label %17, !llvm.loop !9

17:                                               ; preds = %5
  %18 = zext i32 %10 to i64
  %19 = getelementptr inbounds [50 x [20 x i8]], [50 x [20 x i8]]* %1, i64 0, i64 %18
  %20 = icmp eq i32 %6, 0
  br i1 %20, label %37, label %21

21:                                               ; preds = %17
  %22 = getelementptr inbounds [50 x [20 x i8]], [50 x [20 x i8]]* %1, i64 0, i64 1
  br label %23

23:                                               ; preds = %21, %23
  %24 = phi i8* [ %34, %23 ], [ %2, %21 ]
  %25 = phi i8* [ %31, %23 ], [ %2, %21 ]
  %26 = phi [20 x i8]* [ %35, %23 ], [ %22, %21 ]
  %27 = getelementptr inbounds [20 x i8], [20 x i8]* %26, i64 0, i64 0
  %28 = call i64 @strlen(i8* noundef nonnull %27) #6
  %29 = call i64 @strlen(i8* noundef nonnull dereferenceable(1) %25) #6
  %30 = icmp ugt i64 %28, %29
  %31 = select i1 %30, i8* %27, i8* %25
  %32 = call i64 @strlen(i8* noundef nonnull dereferenceable(1) %24) #6
  %33 = icmp ult i64 %28, %32
  %34 = select i1 %33, i8* %27, i8* %24
  %35 = getelementptr inbounds [20 x i8], [20 x i8]* %26, i64 1
  %36 = icmp ult [20 x i8]* %35, %19
  br i1 %36, label %23, label %37, !llvm.loop !11

37:                                               ; preds = %23, %17
  %38 = phi i8* [ %2, %17 ], [ %31, %23 ]
  %39 = phi i8* [ %2, %17 ], [ %34, %23 ]
  %40 = call i32 @puts(i8* nonnull dereferenceable(1) %38)
  %41 = call i32 (i8*, ...) @printf(i8* nonnull dereferenceable(1) getelementptr inbounds ([3 x i8], [3 x i8]* @.str, i64 0, i64 0), i8* %39)
  call void @llvm.lifetime.end.p0i8(i64 1000, i8* nonnull %2) #5
  ret i32 0
}

; Function Attrs: argmemonly mustprogress nofree nosync nounwind willreturn
declare void @llvm.lifetime.start.p0i8(i64 immarg, i8* nocapture) #1

; Function Attrs: nofree nounwind
declare noundef i32 @__isoc99_scanf(i8* nocapture noundef readonly, ...) local_unnamed_addr #2

; Function Attrs: argmemonly mustprogress nofree nounwind readonly willreturn
declare i64 @strlen(i8* nocapture) local_unnamed_addr #3

; Function Attrs: nofree nounwind
declare noundef i32 @printf(i8* nocapture noundef readonly, ...) local_unnamed_addr #2

; Function Attrs: argmemonly mustprogress nofree nosync nounwind willreturn
declare void @llvm.lifetime.end.p0i8(i64 immarg, i8* nocapture) #1

; Function Attrs: nofree nounwind
declare noundef i32 @getc(%struct._IO_FILE* nocapture noundef) local_unnamed_addr #2

; Function Attrs: nofree nounwind
declare noundef i32 @puts(i8* nocapture noundef readonly) local_unnamed_addr #4


!llvm.module.flags = !{!0, !1, !2, !3}
!llvm.ident = !{!4}

!0 = !{i32 1, !"wchar_size", i32 4}
!1 = !{i32 7, !"PIC Level", i32 2}
!2 = !{i32 7, !"PIE Level", i32 2}
!3 = !{i32 7, !"uwtable", i32 1}
!4 = !{!"clang version 13.0.0"}
!5 = !{!6, !6, i64 0}
!6 = !{!"any pointer", !7, i64 0}
!7 = !{!"omnipotent char", !8, i64 0}
!8 = !{!"Simple C/C++ TBAA"}
!9 = distinct !{!9, !10}
!10 = !{!"llvm.loop.mustprogress"}
!11 = distinct !{!11, !10}
